Certificate:
    Data:
        Version: 3 (0x2)
        Serial Number: 1 (0x1)
        Signature Algorithm: sha256WithRSAEncryption
        Issuer: C=CN, ST=Jiangsu, O=Chever Ltd, CN=ca_server/emailAddress=cheverjonathan@gmail.com
        Validity
            Not Before: Feb 25 07:08:12 2025 GMT
            Not After : Feb 25 07:08:12 2026 GMT
        Subject: C=CN, ST=Jiangsu, O=Chever Ltd, CN=grpc-demo/emailAddress=cheverjonathan@gmail.com
        Subject Public Key Info:
            Public Key Algorithm: rsaEncryption
                Public-Key: (4096 bit)
                Modulus:
                    00:84:96:8f:83:c0:b6:71:28:1a:4a:31:5a:1c:09:
                    e8:9c:84:76:41:3b:b5:56:81:42:d6:36:28:3b:6e:
                    15:bf:63:01:b2:12:cc:46:e4:ba:f9:21:23:5c:dd:
                    75:d4:ff:7e:5f:61:6e:db:b0:8a:ac:75:83:c7:3a:
                    df:b9:b5:47:ce:51:72:7a:88:d2:bb:2d:7b:f2:26:
                    c0:1e:fb:20:cc:90:16:af:34:34:23:d7:31:52:75:
                    4a:a3:22:50:c5:f1:05:64:c0:9f:a9:4c:24:c3:20:
                    79:78:47:d0:70:96:04:96:de:46:98:a1:a8:96:87:
                    52:30:af:e6:71:8d:12:ff:63:36:e0:91:01:c9:fa:
                    86:ce:5f:7b:d7:32:1c:34:b2:52:38:18:0e:dd:a2:
                    55:67:ac:8d:33:90:9b:08:03:c5:29:03:de:b7:c7:
                    9f:f3:49:8f:20:60:23:df:04:c4:06:83:61:d2:b3:
                    8b:91:42:d8:39:13:9f:2d:e9:3c:c0:47:ae:e9:20:
                    5c:b2:b0:05:6a:5e:df:ae:f8:39:2d:46:84:d5:52:
                    7e:4d:95:8e:1c:21:c9:e5:d7:00:bd:97:8b:1d:31:
                    2a:bd:96:da:e6:60:0a:77:84:e1:d6:cd:a4:98:63:
                    cc:83:19:de:02:3d:28:c6:0d:58:18:0e:1c:65:4e:
                    e0:d8:27:bf:a5:f8:51:09:60:b1:3f:49:e6:36:0e:
                    0d:10:02:4a:b4:8f:fb:3a:5e:4a:a5:d4:68:cb:dc:
                    b4:85:e9:52:79:25:6a:bc:72:00:88:67:68:c2:d4:
                    a1:4c:67:3f:ac:0e:6c:a1:db:65:97:d1:66:df:40:
                    b9:e9:6c:6d:63:b0:af:cc:c9:6b:ce:a0:b2:0e:96:
                    6b:e3:17:0b:a6:5a:1e:07:bc:ed:23:a0:f5:f9:88:
                    75:05:d2:32:77:45:d5:0e:a9:1c:d6:67:1a:22:d4:
                    23:f2:36:58:08:5c:0c:76:b9:88:d2:8b:59:80:d1:
                    ee:e4:7b:47:45:8e:11:fc:8d:3f:da:f7:08:39:f7:
                    10:d4:2a:01:57:d1:16:a6:8e:95:a9:cd:92:8e:83:
                    d1:6b:78:35:4f:fe:28:9b:bc:8d:62:de:3f:8e:a8:
                    b4:52:27:d4:6f:8c:ca:6f:b7:14:48:17:49:f2:85:
                    3c:fc:f5:19:2b:fe:4e:13:3c:20:07:95:e4:26:73:
                    3f:10:5e:f2:66:04:b5:cd:80:2b:f6:de:47:3f:09:
                    d6:6e:84:ac:27:13:63:de:9d:44:2a:f2:58:d8:bc:
                    5e:16:42:38:70:7d:13:21:05:24:0d:39:14:4b:a0:
                    45:d6:b1:bb:33:93:5c:ba:f5:5a:28:74:06:2b:83:
                    79:88:6b
                Exponent: 65537 (0x10001)
        X509v3 extensions:
            X509v3 Basic Constraints: 
                CA:FALSE
            X509v3 Key Usage: 
                Digital Signature, Non Repudiation, Key Encipherment
            X509v3 Subject Alternative Name: 
                DNS:*.grpc.test.com, DNS:dfe.example.org, DNS:ex.abcexpale.net
            X509v3 Subject Key Identifier: 
                0D:0A:DB:FD:EA:54:1B:23:75:02:1A:01:21:30:71:0D:21:6D:03:E6
            X509v3 Authority Key Identifier: 
                1A:4A:57:B3:37:41:34:FD:CE:2C:2E:1D:31:6F:BC:A8:99:47:B1:2C
    Signature Algorithm: sha256WithRSAEncryption
    Signature Value:
        65:87:34:d6:50:25:26:ae:c0:bd:34:e1:4f:3f:80:cb:f9:c4:
        47:a9:2b:48:e9:d5:6e:51:cd:22:a5:77:9b:32:c4:a9:7e:ae:
        c8:5a:a5:aa:09:7e:64:e1:b7:b1:e3:31:91:95:d8:b4:68:fd:
        d3:f2:8f:35:ee:e3:fe:f3:f0:60:15:ec:60:7c:25:d2:b3:70:
        b0:34:b6:2c:40:29:b9:88:05:9e:bf:dd:45:d3:4f:bf:7b:c1:
        e1:b5:7d:cb:c6:dc:0d:53:dd:11:d4:e5:4f:02:3a:2b:2f:15:
        93:6d:cd:eb:98:69:11:31:68:26:ef:d8:aa:c4:0d:cb:c5:d4:
        11:09:92:28:e6:af:1c:ab:5a:e5:a4:aa:49:5b:f3:46:4d:bf:
        2f:8c:ec:c9:42:6c:92:a7:b4:08:68:c7:95:51:7b:92:b1:d8:
        df:70:eb:d3:62:34:ae:df:31:4d:e7:36:ff:56:1e:fc:2b:90:
        29:79:1a:dc:66:81:25:38:4c:eb:60:e5:fb:5a:fb:0e:62:7c:
        49:e5:41:56:d5:73:6d:c6:71:b9:32:f8:af:7a:7e:a9:74:86:
        ef:dd:5b:58:f6:49:7f:33:18:6a:a2:7b:f8:e7:b1:1e:3a:25:
        3a:a2:13:dc:75:e6:77:9a:9b:d4:69:70:d7:49:11:30:34:2c:
        68:68:9a:12:86:2c:1f:d7:6a:b6:55:fa:3f:4f:cc:6c:8a:f1:
        18:99:80:56:5b:21:08:57:3b:dd:61:d9:4a:35:88:4d:89:13:
        65:af:65:25:1a:c0:14:52:11:3c:09:44:49:b3:c9:42:9b:a7:
        17:8c:21:98:ef:fc:3b:f7:e9:d8:b2:28:ed:c7:40:f8:ec:65:
        27:57:3c:59:4d:d5:ee:34:fa:9b:fa:04:8d:e2:b8:85:be:d1:
        a1:da:4e:83:60:ac:73:9b:19:a7:91:d6:5b:5e:82:92:b3:f7:
        fb:ee:24:aa:01:13:05:8a:33:dd:0c:a7:bc:c1:d0:e6:f2:52:
        7b:bb:97:1f:7a:61:24:d3:21:20:1a:ae:4f:63:38:cc:fa:9f:
        c5:b4:14:b6:5b:7c:db:fa:12:c6:5a:b1:94:3b:9d:3d:ac:3e:
        da:39:e6:7e:b8:10:22:1d:5b:d6:d4:d1:4b:9b:0c:ec:e9:54:
        83:5f:dc:20:58:2b:43:6f:b9:71:ad:b1:52:91:23:6d:4e:b2:
        82:2c:76:cb:b3:a7:3d:28:e8:a2:26:8d:d4:c8:70:8e:79:5c:
        13:38:5c:36:98:32:1f:51:d5:58:74:a1:2d:30:ca:c5:98:7f:
        7c:74:68:bd:69:f4:f0:91:84:cb:cb:ab:92:26:98:99:fb:3d:
        a8:08:a1:a1:62:48:5b:7b
-----BEGIN CERTIFICATE-----
MIIF+DCCA+CgAwIBAgIBATANBgkqhkiG9w0BAQsFADBxMQswCQYDVQQGEwJDTjEQ
MA4GA1UECAwHSmlhbmdzdTETMBEGA1UECgwKQ2hldmVyIEx0ZDESMBAGA1UEAwwJ
Y2Ffc2VydmVyMScwJQYJKoZIhvcNAQkBFhhjaGV2ZXJqb25hdGhhbkBnbWFpbC5j
b20wHhcNMjUwMjI1MDcwODEyWhcNMjYwMjI1MDcwODEyWjBxMQswCQYDVQQGEwJD
TjEQMA4GA1UECAwHSmlhbmdzdTETMBEGA1UECgwKQ2hldmVyIEx0ZDESMBAGA1UE
AwwJZ3JwYy1kZW1vMScwJQYJKoZIhvcNAQkBFhhjaGV2ZXJqb25hdGhhbkBnbWFp
bC5jb20wggIiMA0GCSqGSIb3DQEBAQUAA4ICDwAwggIKAoICAQCElo+DwLZxKBpK
MVocCeichHZBO7VWgULWNig7bhW/YwGyEsxG5Lr5ISNc3XXU/35fYW7bsIqsdYPH
Ot+5tUfOUXJ6iNK7LXvyJsAe+yDMkBavNDQj1zFSdUqjIlDF8QVkwJ+pTCTDIHl4
R9BwlgSW3kaYoaiWh1Iwr+ZxjRL/YzbgkQHJ+obOX3vXMhw0slI4GA7dolVnrI0z
kJsIA8UpA963x5/zSY8gYCPfBMQGg2HSs4uRQtg5E58t6TzAR67pIFyysAVqXt+u
+DktRoTVUn5NlY4cIcnl1wC9l4sdMSq9ltrmYAp3hOHWzaSYY8yDGd4CPSjGDVgY
DhxlTuDYJ7+l+FEJYLE/SeY2Dg0QAkq0j/s6Xkql1GjL3LSF6VJ5JWq8cgCIZ2jC
1KFMZz+sDmyh22WX0WbfQLnpbG1jsK/MyWvOoLIOlmvjFwumWh4HvO0joPX5iHUF
0jJ3RdUOqRzWZxoi1CPyNlgIXAx2uYjSi1mA0e7ke0dFjhH8jT/a9wg59xDUKgFX
0RamjpWpzZKOg9FreDVP/iibvI1i3j+OqLRSJ9RvjMpvtxRIF0nyhTz89Rkr/k4T
PCAHleQmcz8QXvJmBLXNgCv23kc/CdZuhKwnE2PenUQq8ljYvF4WQjhwfRMhBSQN
ORRLoEXWsbszk1y69VoodAYrg3mIawIDAQABo4GaMIGXMAkGA1UdEwQCMAAwCwYD
VR0PBAQDAgXgMD0GA1UdEQQ2MDSCDyouZ3JwYy50ZXN0LmNvbYIPZGZlLmV4YW1w
bGUub3JnghBleC5hYmNleHBhbGUubmV0MB0GA1UdDgQWBBQNCtv96lQbI3UCGgEh
MHENIW0D5jAfBgNVHSMEGDAWgBQaSlezN0E0/c4sLh0xb7yomUexLDANBgkqhkiG
9w0BAQsFAAOCAgEAZYc01lAlJq7AvTThTz+Ay/nER6krSOnVblHNIqV3mzLEqX6u
yFqlqgl+ZOG3seMxkZXYtGj90/KPNe7j/vPwYBXsYHwl0rNwsDS2LEApuYgFnr/d
RdNPv3vB4bV9y8bcDVPdEdTlTwI6Ky8Vk23N65hpETFoJu/YqsQNy8XUEQmSKOav
HKta5aSqSVvzRk2/L4zsyUJskqe0CGjHlVF7krHY33Dr02I0rt8xTec2/1Ye/CuQ
KXka3GaBJThM62Dl+1r7DmJ8SeVBVtVzbcZxuTL4r3p+qXSG791bWPZJfzMYaqJ7
+OexHjolOqIT3HXmd5qb1Glw10kRMDQsaGiaEoYsH9dqtlX6P0/MbIrxGJmAVlsh
CFc73WHZSjWITYkTZa9lJRrAFFIRPAlESbPJQpunF4whmO/8O/fp2LIo7cdA+Oxl
J1c8WU3V7jT6m/oEjeK4hb7RodpOg2Csc5sZp5HWW16CkrP3++4kqgETBYoz3Qyn
vMHQ5vJSe7uXH3phJNMhIBquT2M4zPqfxbQUtlt82/oSxlqxlDudPaw+2jnmfrgQ
Ih1b1tTRS5sM7OlUg1/cIFgrQ2+5ca2xUpEjbU6ygix2y7OnPSjooiaN1Mhwjnlc
EzhcNpgyH1HVWHShLTDKxZh/fHRovWn08JGEy8urkiaYmfs9qAihoWJIW3s=
-----END CERTIFICATE-----
